target datalayout = "e-m:e-p270:32:32-p271:32:32-p272:64:64-i64:64-i128:128-f80:128-n8:16:32:64-S128"
target triple = "x86_64-pc-linux-gnu"

%"class.llvm::SmallVectorBase" = type { ptr, i32, i32 }
%"class.llvm::SmallVector.0" = type { %"class.llvm::SmallVectorImpl.1", %"struct.llvm::SmallVectorStorage.4" }
%"class.llvm::SmallVectorImpl.1" = type { %"class.llvm::SmallVectorTemplateBase.2" }
%"class.llvm::SmallVectorTemplateBase.2" = type { %"class.llvm::SmallVectorTemplateCommon.3" }
%"class.llvm::SmallVectorTemplateCommon.3" = type { %"class.llvm::SmallVectorBase" }
%"struct.llvm::SmallVectorStorage.4" = type { [128 x i8] }
%"class.llvm::SlotIndex" = type { %"class.llvm::PointerIntPair" }
%"class.llvm::PointerIntPair" = type { %"struct.llvm::detail::PunnedPointer" }
%"struct.llvm::detail::PunnedPointer" = type { [8 x i8] }
%"struct.std::pair" = type { %"class.llvm::SlotIndex", %"class.llvm::SlotIndex" }
%"class.llvm::MachineBasicBlock" = type { %"class.llvm::ilist_node_with_parent", ptr, i32, i32, ptr, %"class.llvm::iplist", %"class.llvm::SmallVector.49", %"class.llvm::SmallVector.54", %"class.std::vector", %"class.std::optional", %"class.std::vector.56", %"struct.llvm::Align", i32, i8, i8, ptr, i8, i8, i8, i8, i8, [3 x i8], %"class.std::optional.61", %"struct.llvm::MBBSectionID", i8, i8, i8, ptr, ptr, ptr }
%"class.llvm::ilist_node_with_parent" = type { %"class.llvm::ilist_node" }
%"class.llvm::ilist_node" = type { %"class.llvm::ilist_node_impl" }
%"class.llvm::ilist_node_impl" = type { %"class.llvm::ilist_node_base" }
%"class.llvm::ilist_node_base" = type { %"class.llvm::ilist_detail::node_base_prevnext" }
%"class.llvm::ilist_detail::node_base_prevnext" = type { ptr, ptr }
%"class.llvm::iplist" = type { %"class.llvm::iplist_impl" }
%"class.llvm::iplist_impl" = type { %"struct.llvm::ilist_traits", %"class.llvm::simple_ilist" }
%"struct.llvm::ilist_traits" = type { ptr }
%"class.llvm::simple_ilist" = type { %"class.llvm::ilist_sentinel" }
%"class.llvm::ilist_sentinel" = type { %"class.llvm::ilist_node_impl.43" }
%"class.llvm::ilist_node_impl.43" = type { %"class.llvm::ilist_node_base.44" }
%"class.llvm::ilist_node_base.44" = type { %"class.llvm::ilist_detail::node_base_prevnext.45" }
%"class.llvm::ilist_detail::node_base_prevnext.45" = type { %"class.llvm::PointerIntPair.46", ptr }
%"class.llvm::PointerIntPair.46" = type { %"struct.llvm::detail::PunnedPointer.47" }
%"struct.llvm::detail::PunnedPointer.47" = type { [8 x i8] }
%"class.llvm::SmallVector.49" = type { %"class.llvm::SmallVectorImpl.50", %"struct.llvm::SmallVectorStorage.53" }
%"class.llvm::SmallVectorImpl.50" = type { %"class.llvm::SmallVectorTemplateBase.51" }
%"class.llvm::SmallVectorTemplateBase.51" = type { %"class.llvm::SmallVectorTemplateCommon.52" }
%"class.llvm::SmallVectorTemplateCommon.52" = type { %"class.llvm::SmallVectorBase" }
%"struct.llvm::SmallVectorStorage.53" = type { [32 x i8] }
%"class.llvm::SmallVector.54" = type { %"class.llvm::SmallVectorImpl.50", %"struct.llvm::SmallVectorStorage.55" }
%"struct.llvm::SmallVectorStorage.55" = type { [16 x i8] }
%"class.std::vector" = type { %"struct.std::_Vector_base" }
%"struct.std::_Vector_base" = type { %"struct.std::_Vector_base<llvm::BranchProbability, std::allocator<llvm::BranchProbability>>::_Vector_impl" }
%"struct.std::_Vector_base<llvm::BranchProbability, std::allocator<llvm::BranchProbability>>::_Vector_impl" = type { %"struct.std::_Vector_base<llvm::BranchProbability, std::allocator<llvm::BranchProbability>>::_Vector_impl_data" }
%"struct.std::_Vector_base<llvm::BranchProbability, std::allocator<llvm::BranchProbability>>::_Vector_impl_data" = type { ptr, ptr, ptr }
%"class.std::optional" = type { %"struct.std::_Optional_base" }
%"struct.std::_Optional_base" = type { %"struct.std::_Optional_payload" }
%"struct.std::_Optional_payload" = type { %"struct.std::_Optional_payload_base.base", [7 x i8] }
%"struct.std::_Optional_payload_base.base" = type <{ %"union.std::_Optional_payload_base<unsigned long>::_Storage", i8 }>
%"union.std::_Optional_payload_base<unsigned long>::_Storage" = type { i64 }
%"class.std::vector.56" = type { %"struct.std::_Vector_base.57" }
%"struct.std::_Vector_base.57" = type { %"struct.std::_Vector_base<llvm::MachineBasicBlock::RegisterMaskPair, std::allocator<llvm::MachineBasicBlock::RegisterMaskPair>>::_Vector_impl" }
%"struct.std::_Vector_base<llvm::MachineBasicBlock::RegisterMaskPair, std::allocator<llvm::MachineBasicBlock::RegisterMaskPair>>::_Vector_impl" = type { %"struct.std::_Vector_base<llvm::MachineBasicBlock::RegisterMaskPair, std::allocator<llvm::MachineBasicBlock::RegisterMaskPair>>::_Vector_impl_data" }
%"struct.std::_Vector_base<llvm::MachineBasicBlock::RegisterMaskPair, std::allocator<llvm::MachineBasicBlock::RegisterMaskPair>>::_Vector_impl_data" = type { ptr, ptr, ptr }
%"struct.llvm::Align" = type { i8 }
%"class.std::optional.61" = type { %"struct.std::_Optional_base.62" }
%"struct.std::_Optional_base.62" = type { %"struct.std::_Optional_payload.64" }
%"struct.std::_Optional_payload.64" = type { %"struct.std::_Optional_payload_base.base.66", [3 x i8] }
%"struct.std::_Optional_payload_base.base.66" = type <{ %"union.std::_Optional_payload_base<llvm::UniqueBBID>::_Storage", i8 }>
%"union.std::_Optional_payload_base<llvm::UniqueBBID>::_Storage" = type { %"struct.llvm::UniqueBBID" }
%"struct.llvm::UniqueBBID" = type { i32, i32 }
%"struct.llvm::MBBSectionID" = type { i32, i32 }
%"class.llvm::LiveIntervals" = type { ptr, ptr, ptr, ptr, ptr, ptr, %"class.std::unique_ptr", %"class.llvm::BumpPtrAllocatorImpl", %"class.llvm::IndexedMap", %"class.llvm::SmallVector.23", %"class.llvm::SmallVector.28", %"class.llvm::SmallVector.33", %"class.llvm::SmallVector.38" }
%"class.std::unique_ptr" = type { %"struct.std::__uniq_ptr_data" }
%"struct.std::__uniq_ptr_data" = type { %"class.std::__uniq_ptr_impl" }
%"class.std::__uniq_ptr_impl" = type { %"class.std::tuple" }
%"class.std::tuple" = type { %"struct.std::_Tuple_impl" }
%"struct.std::_Tuple_impl" = type { %"struct.std::_Head_base.6" }
%"struct.std::_Head_base.6" = type { ptr }
%"class.llvm::BumpPtrAllocatorImpl" = type { ptr, ptr, %"class.llvm::SmallVector.8", %"class.llvm::SmallVector.13", i64, i64 }
%"class.llvm::SmallVector.8" = type { %"class.llvm::SmallVectorImpl.9", %"struct.llvm::SmallVectorStorage.12" }
%"class.llvm::SmallVectorImpl.9" = type { %"class.llvm::SmallVectorTemplateBase.10" }
%"class.llvm::SmallVectorTemplateBase.10" = type { %"class.llvm::SmallVectorTemplateCommon.11" }
%"class.llvm::SmallVectorTemplateCommon.11" = type { %"class.llvm::SmallVectorBase" }
%"struct.llvm::SmallVectorStorage.12" = type { [32 x i8] }
%"class.llvm::SmallVector.13" = type { %"class.llvm::SmallVectorImpl.14" }
%"class.llvm::SmallVectorImpl.14" = type { %"class.llvm::SmallVectorTemplateBase.15" }
%"class.llvm::SmallVectorTemplateBase.15" = type { %"class.llvm::SmallVectorTemplateCommon.16" }
%"class.llvm::SmallVectorTemplateCommon.16" = type { %"class.llvm::SmallVectorBase" }
%"class.llvm::IndexedMap" = type <{ %"class.llvm::SmallVector.18", ptr, [8 x i8] }>
%"class.llvm::SmallVector.18" = type { %"class.llvm::SmallVectorImpl.19" }
%"class.llvm::SmallVectorImpl.19" = type { %"class.llvm::SmallVectorTemplateBase.20" }
%"class.llvm::SmallVectorTemplateBase.20" = type { %"class.llvm::SmallVectorTemplateCommon.21" }
%"class.llvm::SmallVectorTemplateCommon.21" = type { %"class.llvm::SmallVectorBase" }
%"class.llvm::SmallVector.23" = type { %"class.llvm::SmallVectorImpl.24", %"struct.llvm::SmallVectorStorage.27" }
%"class.llvm::SmallVectorImpl.24" = type { %"class.llvm::SmallVectorTemplateBase.25" }
%"class.llvm::SmallVectorTemplateBase.25" = type { %"class.llvm::SmallVectorTemplateCommon.26" }
%"class.llvm::SmallVectorTemplateCommon.26" = type { %"class.llvm::SmallVectorBase" }
%"struct.llvm::SmallVectorStorage.27" = type { [64 x i8] }
%"class.llvm::SmallVector.28" = type { %"class.llvm::SmallVectorImpl.29", %"struct.llvm::SmallVectorStorage.32" }
%"class.llvm::SmallVectorImpl.29" = type { %"class.llvm::SmallVectorTemplateBase.30" }
%"class.llvm::SmallVectorTemplateBase.30" = type { %"class.llvm::SmallVectorTemplateCommon.31" }
%"class.llvm::SmallVectorTemplateCommon.31" = type { %"class.llvm::SmallVectorBase" }
%"struct.llvm::SmallVectorStorage.32" = type { [64 x i8] }
%"class.llvm::SmallVector.33" = type { %"class.llvm::SmallVectorImpl.34", %"struct.llvm::SmallVectorStorage.37" }
%"class.llvm::SmallVectorImpl.34" = type { %"class.llvm::SmallVectorTemplateBase.35" }
%"class.llvm::SmallVectorTemplateBase.35" = type { %"class.llvm::SmallVectorTemplateCommon.36" }
%"class.llvm::SmallVectorTemplateCommon.36" = type { %"class.llvm::SmallVectorBase" }
%"struct.llvm::SmallVectorStorage.37" = type { [64 x i8] }
%"class.llvm::SmallVector.38" = type { %"class.llvm::SmallVectorImpl.39" }
%"class.llvm::SmallVectorImpl.39" = type { %"class.llvm::SmallVectorTemplateBase.40" }
%"class.llvm::SmallVectorTemplateBase.40" = type { %"class.llvm::SmallVectorTemplateCommon.41" }
%"class.llvm::SmallVectorTemplateCommon.41" = type { %"class.llvm::SmallVectorBase" }
%"class.llvm::BitVector" = type <{ %"class.llvm::SmallVector.107", i32, [4 x i8] }>
%"class.llvm::SmallVector.107" = type { %"class.llvm::SmallVectorImpl.108", %"struct.llvm::SmallVectorStorage.111" }
%"class.llvm::SmallVectorImpl.108" = type { %"class.llvm::SmallVectorTemplateBase.109" }
%"class.llvm::SmallVectorTemplateBase.109" = type { %"class.llvm::SmallVectorTemplateCommon.110" }
%"class.llvm::SmallVectorTemplateCommon.110" = type { %"class.llvm::SmallVectorBase" }
%"struct.llvm::SmallVectorStorage.111" = type { [48 x i8] }
%"class.llvm::SplitEditor" = type { ptr, ptr, ptr, ptr, ptr, ptr, ptr, ptr, ptr, ptr, i32, i32, %"class.llvm::RecyclingAllocator", %"class.llvm::IntervalMap", %"class.llvm::DenseMap.327", [2 x %"class.llvm::LiveIntervalCalc"] }
%"class.llvm::RecyclingAllocator" = type { %"class.llvm::Recycler.323", %"class.llvm::BumpPtrAllocatorImpl" }
%"class.llvm::Recycler.323" = type { ptr }
%"class.llvm::IntervalMap" = type { %union.anon.324, i32, i32, ptr }
%union.anon.324 = type { %"class.llvm::IntervalMapImpl::LeafNode" }
%"class.llvm::IntervalMapImpl::LeafNode" = type { %"class.llvm::IntervalMapImpl::NodeBase.base", [4 x i8] }
%"class.llvm::IntervalMapImpl::NodeBase.base" = type { [9 x %"struct.std::pair"], [9 x i32] }
%"class.llvm::DenseMap.327" = type <{ ptr, i32, i32, i32, [4 x i8] }>
%"class.llvm::LiveIntervalCalc" = type { %"class.llvm::LiveRangeCalc" }
%"class.llvm::LiveRangeCalc" = type { ptr, ptr, ptr, ptr, ptr, %"class.llvm::BitVector", %"class.llvm::DenseMap.330", %"class.llvm::IndexedMap.333", %"class.llvm::SmallVector.342" }
%"class.llvm::DenseMap.330" = type <{ ptr, i32, i32, i32, [4 x i8] }>
%"class.llvm::IndexedMap.333" = type <{ %"class.llvm::SmallVector.334", %"struct.std::pair.339", [8 x i8] }>
%"class.llvm::SmallVector.334" = type { %"class.llvm::SmallVectorImpl.335" }
%"class.llvm::SmallVectorImpl.335" = type { %"class.llvm::SmallVectorTemplateBase.336" }
%"class.llvm::SmallVectorTemplateBase.336" = type { %"class.llvm::SmallVectorTemplateCommon.337" }
%"class.llvm::SmallVectorTemplateCommon.337" = type { %"class.llvm::SmallVectorBase" }
%"struct.std::pair.339" = type { ptr, ptr }
%"class.llvm::SmallVector.342" = type { %"class.llvm::SmallVectorImpl.343", %"struct.llvm::SmallVectorStorage.346" }
%"class.llvm::SmallVectorImpl.343" = type { %"class.llvm::SmallVectorTemplateBase.344" }
%"class.llvm::SmallVectorTemplateBase.344" = type { %"class.llvm::SmallVectorTemplateCommon.345" }
%"class.llvm::SmallVectorTemplateCommon.345" = type { %"class.llvm::SmallVectorBase" }
%"struct.llvm::SmallVectorStorage.346" = type { [512 x i8] }
%"class.llvm::SlotIndexes" = type { %"class.llvm::BumpPtrAllocatorImpl", %"class.llvm::simple_ilist.302", ptr, %"class.llvm::DenseMap.307", %"class.llvm::SmallVector.0", %"class.llvm::SmallVector.310" }
%"class.llvm::simple_ilist.302" = type { %"class.llvm::ilist_sentinel.304" }
%"class.llvm::ilist_sentinel.304" = type { %"class.llvm::ilist_node_impl.305" }
%"class.llvm::ilist_node_impl.305" = type { %"class.llvm::ilist_node_base" }
%"class.llvm::DenseMap.307" = type <{ ptr, i32, i32, i32, [4 x i8] }>
%"class.llvm::SmallVector.310" = type { %"class.llvm::SmallVectorImpl.311", %"struct.llvm::SmallVectorStorage.314" }
%"class.llvm::SmallVectorImpl.311" = type { %"class.llvm::SmallVectorTemplateBase.312" }
%"class.llvm::SmallVectorTemplateBase.312" = type { %"class.llvm::SmallVectorTemplateCommon.313" }
%"class.llvm::SmallVectorTemplateCommon.313" = type { %"class.llvm::SmallVectorBase" }
%"struct.llvm::SmallVectorStorage.314" = type { [128 x i8] }

; Function Attrs: mustprogress nounwind uwtable
define linkonce_odr hidden noundef ptr @_ZNK4llvm25SmallVectorTemplateCommonISt4pairINS_9SlotIndexES2_EvE5beginEv(ptr noundef nonnull align 8 dereferenceable(16) %0) #1 comdat align 2 {
  %2 = alloca ptr, align 8
  store ptr %0, ptr %2, align 8
  %3 = load ptr, ptr %2, align 8
  %4 = getelementptr inbounds nuw %"class.llvm::SmallVectorBase", ptr %3, i32 0, i32 0
  %5 = load ptr, ptr %4, align 8
  ret ptr %5
}

; Function Attrs: mustprogress nounwind uwtable
define linkonce_odr hidden noundef nonnull align 8 dereferenceable(16) ptr @_ZNK4llvm25SmallVectorTemplateCommonISt4pairINS_9SlotIndexES2_EvEixEm(ptr noundef nonnull align 8 dereferenceable(16) %0, i64 noundef %1) #1 comdat align 2 {
  %3 = alloca ptr, align 8
  %4 = alloca i64, align 8
  store ptr %0, ptr %3, align 8
  store i64 %1, ptr %4, align 8
  %5 = load ptr, ptr %3, align 8
  %6 = call noundef ptr @_ZNK4llvm25SmallVectorTemplateCommonISt4pairINS_9SlotIndexES2_EvE5beginEv(ptr noundef nonnull align 8 dereferenceable(16) %5)
  %7 = load i64, ptr %4, align 8
  %8 = getelementptr inbounds %"struct.std::pair", ptr %6, i64 %7
  ret ptr %8
}

; Function Attrs: mustprogress nounwind uwtable
define linkonce_odr hidden noundef nonnull align 8 dereferenceable(16) ptr @_ZNK4llvm11SlotIndexes11getMBBRangeEj(ptr noundef nonnull align 8 dereferenceable(432) %0, i32 noundef %1) #1 comdat align 2 {
  %3 = alloca ptr, align 8
  %4 = alloca i32, align 4
  store ptr %0, ptr %3, align 8
  store i32 %1, ptr %4, align 4
  %5 = load ptr, ptr %3, align 8
  %6 = getelementptr inbounds nuw %"class.llvm::SlotIndexes", ptr %5, i32 0, i32 4
  %7 = load i32, ptr %4, align 4
  %8 = zext i32 %7 to i64
  %9 = call noundef nonnull align 8 dereferenceable(16) ptr @_ZNK4llvm25SmallVectorTemplateCommonISt4pairINS_9SlotIndexES2_EvEixEm(ptr noundef nonnull align 8 dereferenceable(16) %6, i64 noundef %8)
  ret ptr %9
}

; Function Attrs: mustprogress nounwind uwtable
define linkonce_odr hidden noundef i32 @_ZNK4llvm17MachineBasicBlock9getNumberEv(ptr noundef nonnull align 8 dereferenceable(288) %0) #1 comdat align 2 {
  %2 = alloca ptr, align 8
  store ptr %0, ptr %2, align 8
  %3 = load ptr, ptr %2, align 8
  %4 = getelementptr inbounds nuw %"class.llvm::MachineBasicBlock", ptr %3, i32 0, i32 2
  %5 = load i32, ptr %4, align 8
  ret i32 %5
}

; Function Attrs: mustprogress nounwind uwtable
define linkonce_odr hidden noundef nonnull align 8 dereferenceable(16) ptr @_ZNK4llvm11SlotIndexes11getMBBRangeEPKNS_17MachineBasicBlockE(ptr noundef nonnull align 8 dereferenceable(432) %0, ptr noundef %1) #1 comdat align 2 {
  %3 = alloca ptr, align 8
  %4 = alloca ptr, align 8
  store ptr %0, ptr %3, align 8
  store ptr %1, ptr %4, align 8
  %5 = load ptr, ptr %3, align 8
  %6 = load ptr, ptr %4, align 8
  %7 = call noundef i32 @_ZNK4llvm17MachineBasicBlock9getNumberEv(ptr noundef nonnull align 8 dereferenceable(288) %6)
  %8 = call noundef nonnull align 8 dereferenceable(16) ptr @_ZNK4llvm11SlotIndexes11getMBBRangeEj(ptr noundef nonnull align 8 dereferenceable(432) %5, i32 noundef %7)
  ret ptr %8
}

; Function Attrs: mustprogress nounwind uwtable
define linkonce_odr hidden i64 @_ZNK4llvm11SlotIndexes12getMBBEndIdxEPKNS_17MachineBasicBlockE(ptr noundef nonnull align 8 dereferenceable(432) %0, ptr noundef %1) #1 comdat align 2 {
  %3 = alloca %"class.llvm::SlotIndex", align 8
  %4 = alloca ptr, align 8
  %5 = alloca ptr, align 8
  store ptr %0, ptr %4, align 8
  store ptr %1, ptr %5, align 8
  %6 = load ptr, ptr %4, align 8
  %7 = load ptr, ptr %5, align 8
  %8 = call noundef nonnull align 8 dereferenceable(16) ptr @_ZNK4llvm11SlotIndexes11getMBBRangeEPKNS_17MachineBasicBlockE(ptr noundef nonnull align 8 dereferenceable(432) %6, ptr noundef %7)
  %9 = getelementptr inbounds nuw %"struct.std::pair", ptr %8, i32 0, i32 1
  call void @llvm.memcpy.p0.p0.i64(ptr align 8 %3, ptr align 8 %9, i64 8, i1 false)
  %10 = getelementptr inbounds nuw %"class.llvm::SlotIndex", ptr %3, i32 0, i32 0
  %11 = getelementptr inbounds nuw %"class.llvm::PointerIntPair", ptr %10, i32 0, i32 0
  %12 = getelementptr inbounds nuw %"struct.llvm::detail::PunnedPointer", ptr %11, i32 0, i32 0
  %13 = load i64, ptr %12, align 8
  ret i64 %13
}

; Function Attrs: mustprogress nounwind uwtable
define linkonce_odr hidden i64 @_ZNK4llvm11SlotIndexes14getMBBStartIdxEPKNS_17MachineBasicBlockE(ptr noundef nonnull align 8 dereferenceable(432) %0, ptr noundef %1) #1 comdat align 2 {
  %3 = alloca %"class.llvm::SlotIndex", align 8
  %4 = alloca ptr, align 8
  %5 = alloca ptr, align 8
  store ptr %0, ptr %4, align 8
  store ptr %1, ptr %5, align 8
  %6 = load ptr, ptr %4, align 8
  %7 = load ptr, ptr %5, align 8
  %8 = call noundef nonnull align 8 dereferenceable(16) ptr @_ZNK4llvm11SlotIndexes11getMBBRangeEPKNS_17MachineBasicBlockE(ptr noundef nonnull align 8 dereferenceable(432) %6, ptr noundef %7)
  %9 = getelementptr inbounds nuw %"struct.std::pair", ptr %8, i32 0, i32 0
  call void @llvm.memcpy.p0.p0.i64(ptr align 8 %3, ptr align 8 %9, i64 8, i1 false)
  %10 = getelementptr inbounds nuw %"class.llvm::SlotIndex", ptr %3, i32 0, i32 0
  %11 = getelementptr inbounds nuw %"class.llvm::PointerIntPair", ptr %10, i32 0, i32 0
  %12 = getelementptr inbounds nuw %"struct.llvm::detail::PunnedPointer", ptr %11, i32 0, i32 0
  %13 = load i64, ptr %12, align 8
  ret i64 %13
}

; Function Attrs: mustprogress nounwind uwtable
define hidden void @_ZN4llvm11SplitEditor7useIntvENS_9SlotIndexES1_(ptr noundef nonnull align 8 dereferenceable(1824) %0, i64 %1, i64 %2) #1 align 2 {
  %4 = alloca %"class.llvm::SlotIndex", align 8
  %5 = alloca %"class.llvm::SlotIndex", align 8
  %6 = alloca ptr, align 8
  %7 = alloca %"class.llvm::SlotIndex", align 8
  %8 = alloca %"class.llvm::SlotIndex", align 8
  %9 = getelementptr inbounds nuw %"class.llvm::SlotIndex", ptr %4, i32 0, i32 0
  %10 = getelementptr inbounds nuw %"class.llvm::PointerIntPair", ptr %9, i32 0, i32 0
  %11 = getelementptr inbounds nuw %"struct.llvm::detail::PunnedPointer", ptr %10, i32 0, i32 0
  store i64 %1, ptr %11, align 8
  %12 = getelementptr inbounds nuw %"class.llvm::SlotIndex", ptr %5, i32 0, i32 0
  %13 = getelementptr inbounds nuw %"class.llvm::PointerIntPair", ptr %12, i32 0, i32 0
  %14 = getelementptr inbounds nuw %"struct.llvm::detail::PunnedPointer", ptr %13, i32 0, i32 0
  store i64 %2, ptr %14, align 8
  store ptr %0, ptr %6, align 8
  %15 = load ptr, ptr %6, align 8
  br label %16

16:                                               ; preds = %3
  br label %17

17:                                               ; preds = %16
  %18 = getelementptr inbounds nuw %"class.llvm::SplitEditor", ptr %15, i32 0, i32 13
  call void @llvm.memcpy.p0.p0.i64(ptr align 8 %7, ptr align 8 %4, i64 8, i1 false)
  call void @llvm.memcpy.p0.p0.i64(ptr align 8 %8, ptr align 8 %5, i64 8, i1 false)
  %19 = getelementptr inbounds nuw %"class.llvm::SplitEditor", ptr %15, i32 0, i32 10
  %20 = load i32, ptr %19, align 8
  %21 = getelementptr inbounds nuw %"class.llvm::SlotIndex", ptr %7, i32 0, i32 0
  %22 = getelementptr inbounds nuw %"class.llvm::PointerIntPair", ptr %21, i32 0, i32 0
  %23 = getelementptr inbounds nuw %"struct.llvm::detail::PunnedPointer", ptr %22, i32 0, i32 0
  %24 = load i64, ptr %23, align 8
  %25 = getelementptr inbounds nuw %"class.llvm::SlotIndex", ptr %8, i32 0, i32 0
  %26 = getelementptr inbounds nuw %"class.llvm::PointerIntPair", ptr %25, i32 0, i32 0
  %27 = getelementptr inbounds nuw %"struct.llvm::detail::PunnedPointer", ptr %26, i32 0, i32 0
  %28 = load i64, ptr %27, align 8
  call void @_ZN4llvm11IntervalMapINS_9SlotIndexEjLj9ENS_15IntervalMapInfoIS1_EEE6insertES1_S1_j(ptr noundef nonnull align 8 dereferenceable(200) %18, i64 %24, i64 %28, i32 noundef %20)
  br label %29

29:                                               ; preds = %17
  br label %30

30:                                               ; preds = %29
  ret void
}

; Function Attrs: mustprogress nounwind uwtable
define linkonce_odr hidden i64 @_ZNK4llvm13LiveIntervals12getMBBEndIdxEPKNS_17MachineBasicBlockE(ptr noundef nonnull align 8 dereferenceable(440) %0, ptr noundef %1) #1 comdat align 2 {
  %3 = alloca %"class.llvm::SlotIndex", align 8
  %4 = alloca ptr, align 8
  %5 = alloca ptr, align 8
  store ptr %0, ptr %4, align 8
  store ptr %1, ptr %5, align 8
  %6 = load ptr, ptr %4, align 8
  %7 = getelementptr inbounds nuw %"class.llvm::LiveIntervals", ptr %6, i32 0, i32 4
  %8 = load ptr, ptr %7, align 8
  %9 = load ptr, ptr %5, align 8
  %10 = call i64 @_ZNK4llvm11SlotIndexes12getMBBEndIdxEPKNS_17MachineBasicBlockE(ptr noundef nonnull align 8 dereferenceable(432) %8, ptr noundef %9)
  %11 = getelementptr inbounds nuw %"class.llvm::SlotIndex", ptr %3, i32 0, i32 0
  %12 = getelementptr inbounds nuw %"class.llvm::PointerIntPair", ptr %11, i32 0, i32 0
  %13 = getelementptr inbounds nuw %"struct.llvm::detail::PunnedPointer", ptr %12, i32 0, i32 0
  store i64 %10, ptr %13, align 8
  %14 = getelementptr inbounds nuw %"class.llvm::SlotIndex", ptr %3, i32 0, i32 0
  %15 = getelementptr inbounds nuw %"class.llvm::PointerIntPair", ptr %14, i32 0, i32 0
  %16 = getelementptr inbounds nuw %"struct.llvm::detail::PunnedPointer", ptr %15, i32 0, i32 0
  %17 = load i64, ptr %16, align 8
  ret i64 %17
}

; Function Attrs: mustprogress nounwind uwtable
define linkonce_odr hidden i64 @_ZNK4llvm13LiveIntervals14getMBBStartIdxEPKNS_17MachineBasicBlockE(ptr noundef nonnull align 8 dereferenceable(440) %0, ptr noundef %1) #1 comdat align 2 {
  %3 = alloca %"class.llvm::SlotIndex", align 8
  %4 = alloca ptr, align 8
  %5 = alloca ptr, align 8
  store ptr %0, ptr %4, align 8
  store ptr %1, ptr %5, align 8
  %6 = load ptr, ptr %4, align 8
  %7 = getelementptr inbounds nuw %"class.llvm::LiveIntervals", ptr %6, i32 0, i32 4
  %8 = load ptr, ptr %7, align 8
  %9 = load ptr, ptr %5, align 8
  %10 = call i64 @_ZNK4llvm11SlotIndexes14getMBBStartIdxEPKNS_17MachineBasicBlockE(ptr noundef nonnull align 8 dereferenceable(432) %8, ptr noundef %9)
  %11 = getelementptr inbounds nuw %"class.llvm::SlotIndex", ptr %3, i32 0, i32 0
  %12 = getelementptr inbounds nuw %"class.llvm::PointerIntPair", ptr %11, i32 0, i32 0
  %13 = getelementptr inbounds nuw %"struct.llvm::detail::PunnedPointer", ptr %12, i32 0, i32 0
  store i64 %10, ptr %13, align 8
  %14 = getelementptr inbounds nuw %"class.llvm::SlotIndex", ptr %3, i32 0, i32 0
  %15 = getelementptr inbounds nuw %"class.llvm::PointerIntPair", ptr %14, i32 0, i32 0
  %16 = getelementptr inbounds nuw %"struct.llvm::detail::PunnedPointer", ptr %15, i32 0, i32 0
  %17 = load i64, ptr %16, align 8
  ret i64 %17
}

; Function Attrs: mustprogress nounwind uwtable
define hidden void @_ZN4llvm11SplitEditor7useIntvERKNS_17MachineBasicBlockE(ptr noundef nonnull align 8 dereferenceable(1824) %0, ptr noundef nonnull align 8 dereferenceable(288) %1) #1 align 2 {
  %3 = alloca ptr, align 8
  %4 = alloca ptr, align 8
  %5 = alloca %"class.llvm::SlotIndex", align 8
  %6 = alloca %"class.llvm::SlotIndex", align 8
  store ptr %0, ptr %3, align 8
  store ptr %1, ptr %4, align 8
  %7 = load ptr, ptr %3, align 8
  %8 = getelementptr inbounds nuw %"class.llvm::SplitEditor", ptr %7, i32 0, i32 1
  %9 = load ptr, ptr %8, align 8
  %10 = load ptr, ptr %4, align 8
  %11 = call i64 @_ZNK4llvm13LiveIntervals14getMBBStartIdxEPKNS_17MachineBasicBlockE(ptr noundef nonnull align 8 dereferenceable(440) %9, ptr noundef %10)
  %12 = getelementptr inbounds nuw %"class.llvm::SlotIndex", ptr %5, i32 0, i32 0
  %13 = getelementptr inbounds nuw %"class.llvm::PointerIntPair", ptr %12, i32 0, i32 0
  %14 = getelementptr inbounds nuw %"struct.llvm::detail::PunnedPointer", ptr %13, i32 0, i32 0
  store i64 %11, ptr %14, align 8
  %15 = getelementptr inbounds nuw %"class.llvm::SplitEditor", ptr %7, i32 0, i32 1
  %16 = load ptr, ptr %15, align 8
  %17 = load ptr, ptr %4, align 8
  %18 = call i64 @_ZNK4llvm13LiveIntervals12getMBBEndIdxEPKNS_17MachineBasicBlockE(ptr noundef nonnull align 8 dereferenceable(440) %16, ptr noundef %17)
  %19 = getelementptr inbounds nuw %"class.llvm::SlotIndex", ptr %6, i32 0, i32 0
  %20 = getelementptr inbounds nuw %"class.llvm::PointerIntPair", ptr %19, i32 0, i32 0
  %21 = getelementptr inbounds nuw %"struct.llvm::detail::PunnedPointer", ptr %20, i32 0, i32 0
  store i64 %18, ptr %21, align 8
  %22 = getelementptr inbounds nuw %"class.llvm::SlotIndex", ptr %5, i32 0, i32 0
  %23 = getelementptr inbounds nuw %"class.llvm::PointerIntPair", ptr %22, i32 0, i32 0
  %24 = getelementptr inbounds nuw %"struct.llvm::detail::PunnedPointer", ptr %23, i32 0, i32 0
  %25 = load i64, ptr %24, align 8
  %26 = getelementptr inbounds nuw %"class.llvm::SlotIndex", ptr %6, i32 0, i32 0
  %27 = getelementptr inbounds nuw %"class.llvm::PointerIntPair", ptr %26, i32 0, i32 0
  %28 = getelementptr inbounds nuw %"struct.llvm::detail::PunnedPointer", ptr %27, i32 0, i32 0
  %29 = load i64, ptr %28, align 8
  call void @_ZN4llvm11SplitEditor7useIntvENS_9SlotIndexES1_(ptr noundef nonnull align 8 dereferenceable(1824) %7, i64 %25, i64 %29)
  ret void
}