; Function Attrs: mustprogress nounwind uwtable
define hidden void @_ZN4llvm11SplitEditor7useIntvERKNS_17MachineBasicBlockE(ptr noundef nonnull align 8 dereferenceable(1824) %0, ptr noundef nonnull readonly align 8 captures(none) dereferenceable(288) %1) local_unnamed_addr #0 align 2 {
  %3 = getelementptr inbounds nuw i8, ptr %0, i64 8
  %4 = load ptr, ptr %3, align 8
  %5 = getelementptr inbounds nuw i8, ptr %4, i64 32
  %6 = load ptr, ptr %5, align 8
  %7 = getelementptr inbounds nuw i8, ptr %1, i64 24
  %8 = load i32, ptr %7, align 8
  %9 = getelementptr inbounds nuw i8, ptr %6, i64 144
  %10 = zext i32 %8 to i64
  %11 = load ptr, ptr %9, align 8
  %12 = getelementptr inbounds nuw %"struct.std::pair", ptr %11, i64 %10
  %.sroa.0.0.copyload.i.i = load i64, ptr %12, align 8
  %13 = getelementptr inbounds nuw %"struct.std::pair", ptr %11, i64 %10, i32 1
  %.sroa.0.0.copyload.i.i4 = load i64, ptr %13, align 8
  %14 = getelementptr inbounds nuw i8, ptr %0, i64 192
  %15 = getelementptr inbounds nuw i8, ptr %0, i64 80
  %16 = load i32, ptr %15, align 8
  tail call void @_ZN4llvm11IntervalMapINS_9SlotIndexEjLj9ENS_15IntervalMapInfoIS1_EEE6insertES1_S1_j(ptr noundef nonnull align 8 dereferenceable(200) %14, i64 %.sroa.0.0.copyload.i.i, i64 %.sroa.0.0.copyload.i.i4, i32 noundef %16)
  ret void
}